target datalayout = "e-m:e-p270:32:32-p271:32:32-p272:64:64-i64:64-i128:128-f80:128-n8:16:32:64-S128"
target triple = "x86_64-pc-linux-gnu"

%struct.mbedtls_ssl_context = type { ptr, i32, i32, i32, i32, i32, ptr, ptr, ptr, ptr, ptr, ptr, ptr, ptr, ptr, ptr, ptr, ptr, ptr, ptr, ptr, ptr, ptr, ptr, ptr, ptr, ptr, ptr, ptr, ptr, ptr, ptr, ptr, i32, i64, i64, i16, i64, i64, i64, i64, i32, i32, i8, i8, i32, i8, ptr, ptr, ptr, ptr, ptr, ptr, ptr, i32, i64, i64, [8 x i8], i16, ptr, ptr, ptr, i64, i32, i64, [12 x i8], [12 x i8], [32 x i8], i8, i8, ptr, ptr, %union.mbedtls_ssl_user_data_t }
%union.mbedtls_ssl_user_data_t = type { i64 }
%struct.mbedtls_ssl_config = type { i32, i32, i8, i8, i8, i8, i8, i8, i8, i8, i8, i8, i16, i8, i8, i8, ptr, i32, ptr, ptr, ptr, ptr, ptr, ptr, ptr, ptr, ptr, ptr, ptr, ptr, ptr, ptr, ptr, ptr, ptr, ptr, ptr, i64, ptr, ptr, ptr, ptr, ptr, ptr, ptr, ptr, %struct.mbedtls_mpi, %struct.mbedtls_mpi, ptr, i64, ptr, i64, ptr, i32, i32, i32, i32, [8 x i8], i32, i32, %union.mbedtls_ssl_user_data_t, ptr, ptr }
%struct.mbedtls_mpi = type { ptr, i16, i16 }
%struct.mbedtls_ecp_point = type { %struct.mbedtls_mpi, %struct.mbedtls_mpi, %struct.mbedtls_mpi }
%struct.mbedtls_ecdh_context = type { i8, i32, i32, %union.anon }
%union.anon = type { %struct.mbedtls_ecdh_context_mbed }
%struct.mbedtls_ecdh_context_mbed = type { %struct.mbedtls_ecp_group, %struct.mbedtls_mpi, %struct.mbedtls_ecp_point, %struct.mbedtls_ecp_point, %struct.mbedtls_mpi }
%struct.mbedtls_ecp_group = type { i32, %struct.mbedtls_mpi, %struct.mbedtls_mpi, %struct.mbedtls_mpi, %struct.mbedtls_ecp_point, %struct.mbedtls_mpi, i64, i64, i32, ptr, ptr, ptr, ptr, ptr, i64 }

@debug_threshold = internal global i32 0, align 4
@.str.6 = private unnamed_addr constant [6 x i8] c"%s(X)\00", align 1
@.str.7 = private unnamed_addr constant [6 x i8] c"%s(Y)\00", align 1
@.str.16 = private unnamed_addr constant [8 x i8] c"ECDH: Q\00", align 1
@.str.17 = private unnamed_addr constant [9 x i8] c"ECDH: Qp\00", align 1
@.str.18 = private unnamed_addr constant [8 x i8] c"ECDH: z\00", align 1

; Function Attrs: nounwind uwtable
define hidden void @mbedtls_debug_print_ecp(ptr noundef %0, i32 noundef %1, ptr noundef %2, i32 noundef %3, ptr noundef %4, ptr noundef %5) #0 {
  %7 = alloca ptr, align 8
  %8 = alloca i32, align 4
  %9 = alloca ptr, align 8
  %10 = alloca i32, align 4
  %11 = alloca ptr, align 8
  %12 = alloca ptr, align 8
  %13 = alloca [512 x i8], align 16
  %14 = alloca i32, align 4
  store ptr %0, ptr %7, align 8, !tbaa !7
  store i32 %1, ptr %8, align 4, !tbaa !3
  store ptr %2, ptr %9, align 8, !tbaa !10
  store i32 %3, ptr %10, align 4, !tbaa !3
  store ptr %4, ptr %11, align 8, !tbaa !10
  store ptr %5, ptr %12, align 8, !tbaa !38
  call void @llvm.lifetime.start.p0(i64 512, ptr %13) #8
  %15 = load ptr, ptr %7, align 8, !tbaa !7
  %16 = icmp eq ptr null, %15
  br i1 %16, label %33, label %17

17:                                               ; preds = %6
  %18 = load ptr, ptr %7, align 8, !tbaa !7
  %19 = getelementptr inbounds nuw %struct.mbedtls_ssl_context, ptr %18, i32 0, i32 0
  %20 = load ptr, ptr %19, align 8, !tbaa !12
  %21 = icmp eq ptr null, %20
  br i1 %21, label %33, label %22

22:                                               ; preds = %17
  %23 = load ptr, ptr %7, align 8, !tbaa !7
  %24 = getelementptr inbounds nuw %struct.mbedtls_ssl_context, ptr %23, i32 0, i32 0
  %25 = load ptr, ptr %24, align 8, !tbaa !12
  %26 = getelementptr inbounds nuw %struct.mbedtls_ssl_config, ptr %25, i32 0, i32 18
  %27 = load ptr, ptr %26, align 8, !tbaa !20
  %28 = icmp eq ptr null, %27
  br i1 %28, label %33, label %29

29:                                               ; preds = %22
  %30 = load i32, ptr %8, align 4, !tbaa !3
  %31 = load i32, ptr @debug_threshold, align 4, !tbaa !3
  %32 = icmp sgt i32 %30, %31
  br i1 %32, label %33, label %34

33:                                               ; preds = %29, %22, %17, %6
  store i32 1, ptr %14, align 4
  br label %55

34:                                               ; preds = %29
  %35 = getelementptr inbounds [512 x i8], ptr %13, i64 0, i64 0
  %36 = load ptr, ptr %11, align 8, !tbaa !10
  %37 = call i32 (ptr, i64, ptr, ...) @snprintf(ptr noundef %35, i64 noundef 512, ptr noundef @.str.6, ptr noundef %36) #8
  %38 = load ptr, ptr %7, align 8, !tbaa !7
  %39 = load i32, ptr %8, align 4, !tbaa !3
  %40 = load ptr, ptr %9, align 8, !tbaa !10
  %41 = load i32, ptr %10, align 4, !tbaa !3
  %42 = getelementptr inbounds [512 x i8], ptr %13, i64 0, i64 0
  %43 = load ptr, ptr %12, align 8, !tbaa !38
  %44 = getelementptr inbounds nuw %struct.mbedtls_ecp_point, ptr %43, i32 0, i32 0
  call void @mbedtls_debug_print_mpi(ptr noundef %38, i32 noundef %39, ptr noundef %40, i32 noundef %41, ptr noundef %42, ptr noundef %44)
  %45 = getelementptr inbounds [512 x i8], ptr %13, i64 0, i64 0
  %46 = load ptr, ptr %11, align 8, !tbaa !10
  %47 = call i32 (ptr, i64, ptr, ...) @snprintf(ptr noundef %45, i64 noundef 512, ptr noundef @.str.7, ptr noundef %46) #8
  %48 = load ptr, ptr %7, align 8, !tbaa !7
  %49 = load i32, ptr %8, align 4, !tbaa !3
  %50 = load ptr, ptr %9, align 8, !tbaa !10
  %51 = load i32, ptr %10, align 4, !tbaa !3
  %52 = getelementptr inbounds [512 x i8], ptr %13, i64 0, i64 0
  %53 = load ptr, ptr %12, align 8, !tbaa !38
  %54 = getelementptr inbounds nuw %struct.mbedtls_ecp_point, ptr %53, i32 0, i32 1
  call void @mbedtls_debug_print_mpi(ptr noundef %48, i32 noundef %49, ptr noundef %50, i32 noundef %51, ptr noundef %52, ptr noundef %54)
  store i32 0, ptr %14, align 4
  br label %55

55:                                               ; preds = %34, %33
  call void @llvm.lifetime.end.p0(i64 512, ptr %13) #8
  %56 = load i32, ptr %14, align 4
  switch i32 %56, label %58 [
    i32 0, label %57
    i32 1, label %57
  ]

57:                                               ; preds = %55, %55
  ret void

58:                                               ; preds = %55
  unreachable
}

; Function Attrs: nounwind uwtable
define internal void @mbedtls_debug_printf_ecdh_internal(ptr noundef %0, i32 noundef %1, ptr noundef %2, i32 noundef %3, ptr noundef %4, i32 noundef %5) #0 {
  %7 = alloca ptr, align 8
  %8 = alloca i32, align 4
  %9 = alloca ptr, align 8
  %10 = alloca i32, align 4
  %11 = alloca ptr, align 8
  %12 = alloca i32, align 4
  %13 = alloca ptr, align 8
  store ptr %0, ptr %7, align 8, !tbaa !7
  store i32 %1, ptr %8, align 4, !tbaa !3
  store ptr %2, ptr %9, align 8, !tbaa !10
  store i32 %3, ptr %10, align 4, !tbaa !3
  store ptr %4, ptr %11, align 8, !tbaa !65
  store i32 %5, ptr %12, align 4, !tbaa !3
  call void @llvm.lifetime.start.p0(i64 8, ptr %13) #8
  %14 = load ptr, ptr %11, align 8, !tbaa !65
  %15 = getelementptr inbounds nuw %struct.mbedtls_ecdh_context, ptr %14, i32 0, i32 3
  store ptr %15, ptr %13, align 8, !tbaa !69
  %16 = load i32, ptr %12, align 4, !tbaa !3
  switch i32 %16, label %38 [
    i32 0, label %17
    i32 1, label %24
    i32 2, label %31
  ]

17:                                               ; preds = %6
  %18 = load ptr, ptr %7, align 8, !tbaa !7
  %19 = load i32, ptr %8, align 4, !tbaa !3
  %20 = load ptr, ptr %9, align 8, !tbaa !10
  %21 = load i32, ptr %10, align 4, !tbaa !3
  %22 = load ptr, ptr %13, align 8, !tbaa !69
  %23 = getelementptr inbounds nuw %struct.mbedtls_ecdh_context_mbed, ptr %22, i32 0, i32 2
  call void @mbedtls_debug_print_ecp(ptr noundef %18, i32 noundef %19, ptr noundef %20, i32 noundef %21, ptr noundef @.str.16, ptr noundef %23)
  br label %39

24:                                               ; preds = %6
  %25 = load ptr, ptr %7, align 8, !tbaa !7
  %26 = load i32, ptr %8, align 4, !tbaa !3
  %27 = load ptr, ptr %9, align 8, !tbaa !10
  %28 = load i32, ptr %10, align 4, !tbaa !3
  %29 = load ptr, ptr %13, align 8, !tbaa !69
  %30 = getelementptr inbounds nuw %struct.mbedtls_ecdh_context_mbed, ptr %29, i32 0, i32 3
  call void @mbedtls_debug_print_ecp(ptr noundef %25, i32 noundef %26, ptr noundef %27, i32 noundef %28, ptr noundef @.str.17, ptr noundef %30)
  br label %39

31:                                               ; preds = %6
  %32 = load ptr, ptr %7, align 8, !tbaa !7
  %33 = load i32, ptr %8, align 4, !tbaa !3
  %34 = load ptr, ptr %9, align 8, !tbaa !10
  %35 = load i32, ptr %10, align 4, !tbaa !3
  %36 = load ptr, ptr %13, align 8, !tbaa !69
  %37 = getelementptr inbounds nuw %struct.mbedtls_ecdh_context_mbed, ptr %36, i32 0, i32 4
  call void @mbedtls_debug_print_mpi(ptr noundef %32, i32 noundef %33, ptr noundef %34, i32 noundef %35, ptr noundef @.str.18, ptr noundef %37)
  br label %39

38:                                               ; preds = %6
  br label %39

39:                                               ; preds = %38, %31, %24, %17
  call void @llvm.lifetime.end.p0(i64 8, ptr %13) #8
  ret void
}

; Function Attrs: nounwind uwtable
define hidden void @mbedtls_debug_printf_ecdh(ptr noundef %0, i32 noundef %1, ptr noundef %2, i32 noundef %3, ptr noundef %4, i32 noundef %5) #0 {
  %7 = alloca ptr, align 8
  %8 = alloca i32, align 4
  %9 = alloca ptr, align 8
  %10 = alloca i32, align 4
  %11 = alloca ptr, align 8
  %12 = alloca i32, align 4
  store ptr %0, ptr %7, align 8, !tbaa !7
  store i32 %1, ptr %8, align 4, !tbaa !3
  store ptr %2, ptr %9, align 8, !tbaa !10
  store i32 %3, ptr %10, align 4, !tbaa !3
  store ptr %4, ptr %11, align 8, !tbaa !65
  store i32 %5, ptr %12, align 4, !tbaa !3
  %13 = load ptr, ptr %11, align 8, !tbaa !65
  %14 = getelementptr inbounds nuw %struct.mbedtls_ecdh_context, ptr %13, i32 0, i32 2
  %15 = load i32, ptr %14, align 8, !tbaa !67
  switch i32 %15, label %16 [
  ]

16:                                               ; preds = %6
  %17 = load ptr, ptr %7, align 8, !tbaa !7
  %18 = load i32, ptr %8, align 4, !tbaa !3
  %19 = load ptr, ptr %9, align 8, !tbaa !10
  %20 = load i32, ptr %10, align 4, !tbaa !3
  %21 = load ptr, ptr %11, align 8, !tbaa !65
  %22 = load i32, ptr %12, align 4, !tbaa !3
  call void @mbedtls_debug_printf_ecdh_internal(ptr noundef %17, i32 noundef %18, ptr noundef %19, i32 noundef %20, ptr noundef %21, i32 noundef %22)
  br label %23

23:                                               ; preds = %16
  ret void
}