; Function Attrs: nounwind uwtable
define hidden void @mbedtls_debug_printf_ecdh(ptr noundef %0, i32 noundef %1, ptr noundef %2, i32 noundef %3, ptr noundef %4, i32 noundef %5) local_unnamed_addr #1 {
  %7 = alloca [512 x i8], align 16
  %8 = alloca [512 x i8], align 16
  switch i32 %5, label %mbedtls_debug_printf_ecdh_internal.exit [
    i32 0, label %9
    i32 1, label %25
    i32 2, label %41
  ]

9:                                                ; preds = %6
  %10 = getelementptr inbounds nuw i8, ptr %4, i64 224
  call void @llvm.lifetime.start.p0(i64 512, ptr nonnull %8) #9
  %11 = icmp eq ptr %0, null
  br i1 %11, label %mbedtls_debug_print_ecp.exit.i, label %12

12:                                               ; preds = %9
  %13 = load ptr, ptr %0, align 8, !tbaa !7
  %14 = icmp eq ptr %13, null
  br i1 %14, label %mbedtls_debug_print_ecp.exit.i, label %15

15:                                               ; preds = %12
  %16 = getelementptr inbounds nuw i8, ptr %13, i64 40
  %17 = load ptr, ptr %16, align 8, !tbaa !17
  %18 = icmp eq ptr %17, null
  %19 = load i32, ptr @debug_threshold, align 4
  %20 = icmp sgt i32 %1, %19
  %or.cond.i.i = select i1 %18, i1 true, i1 %20
  br i1 %or.cond.i.i, label %mbedtls_debug_print_ecp.exit.i, label %21

21:                                               ; preds = %15
  %22 = call i32 (ptr, i64, ptr, ...) @snprintf(ptr noundef nonnull dereferenceable(1) %8, i64 noundef 512, ptr noundef nonnull @.str.6, ptr noundef nonnull @.str.16) #9
  call void @mbedtls_debug_print_mpi(ptr noundef nonnull %0, i32 noundef %1, ptr noundef %2, i32 noundef %3, ptr noundef nonnull %8, ptr noundef nonnull %10)
  %23 = call i32 (ptr, i64, ptr, ...) @snprintf(ptr noundef nonnull dereferenceable(1) %8, i64 noundef 512, ptr noundef nonnull @.str.7, ptr noundef nonnull @.str.16) #9
  %24 = getelementptr inbounds nuw i8, ptr %4, i64 240
  call void @mbedtls_debug_print_mpi(ptr noundef nonnull %0, i32 noundef %1, ptr noundef %2, i32 noundef %3, ptr noundef nonnull %8, ptr noundef nonnull %24)
  br label %mbedtls_debug_print_ecp.exit.i

mbedtls_debug_print_ecp.exit.i:                   ; preds = %21, %15, %12, %9
  call void @llvm.lifetime.end.p0(i64 512, ptr nonnull %8) #9
  br label %mbedtls_debug_printf_ecdh_internal.exit

25:                                               ; preds = %6
  %26 = getelementptr inbounds nuw i8, ptr %4, i64 272
  call void @llvm.lifetime.start.p0(i64 512, ptr nonnull %7) #9
  %27 = icmp eq ptr %0, null
  br i1 %27, label %mbedtls_debug_print_ecp.exit17.i, label %28

28:                                               ; preds = %25
  %29 = load ptr, ptr %0, align 8, !tbaa !7
  %30 = icmp eq ptr %29, null
  br i1 %30, label %mbedtls_debug_print_ecp.exit17.i, label %31

31:                                               ; preds = %28
  %32 = getelementptr inbounds nuw i8, ptr %29, i64 40
  %33 = load ptr, ptr %32, align 8, !tbaa !17
  %34 = icmp eq ptr %33, null
  %35 = load i32, ptr @debug_threshold, align 4
  %36 = icmp sgt i32 %1, %35
  %or.cond.i16.i = select i1 %34, i1 true, i1 %36
  br i1 %or.cond.i16.i, label %mbedtls_debug_print_ecp.exit17.i, label %37

37:                                               ; preds = %31
  %38 = call i32 (ptr, i64, ptr, ...) @snprintf(ptr noundef nonnull dereferenceable(1) %7, i64 noundef 512, ptr noundef nonnull @.str.6, ptr noundef nonnull @.str.17) #9
  call void @mbedtls_debug_print_mpi(ptr noundef nonnull %0, i32 noundef %1, ptr noundef %2, i32 noundef %3, ptr noundef nonnull %7, ptr noundef nonnull %26)
  %39 = call i32 (ptr, i64, ptr, ...) @snprintf(ptr noundef nonnull dereferenceable(1) %7, i64 noundef 512, ptr noundef nonnull @.str.7, ptr noundef nonnull @.str.17) #9
  %40 = getelementptr inbounds nuw i8, ptr %4, i64 288
  call void @mbedtls_debug_print_mpi(ptr noundef nonnull %0, i32 noundef %1, ptr noundef %2, i32 noundef %3, ptr noundef nonnull %7, ptr noundef nonnull %40)
  br label %mbedtls_debug_print_ecp.exit17.i

mbedtls_debug_print_ecp.exit17.i:                 ; preds = %37, %31, %28, %25
  call void @llvm.lifetime.end.p0(i64 512, ptr nonnull %7) #9
  br label %mbedtls_debug_printf_ecdh_internal.exit

41:                                               ; preds = %6
  %42 = getelementptr inbounds nuw i8, ptr %4, i64 320
  tail call void @mbedtls_debug_print_mpi(ptr noundef %0, i32 noundef %1, ptr noundef %2, i32 noundef %3, ptr noundef nonnull @.str.18, ptr noundef nonnull %42)
  br label %mbedtls_debug_printf_ecdh_internal.exit

mbedtls_debug_printf_ecdh_internal.exit:          ; preds = %6, %mbedtls_debug_print_ecp.exit.i, %mbedtls_debug_print_ecp.exit17.i, %41
  ret void
}